(lp0
L1070L
aL1123L
aL1117L
aL1119L
aL1073L
aL1075L
aL1131L
aL1087L
aL1133L
aL1103L
aL1135L
aL1081L
aL1077L
aL1091L
aL1114L
aL1086L
aL1113L
aL1120L
aL1132L
aL1112L
aL1129L
aL1126L
aL1101L
aL1122L
aL1136L
aL1076L
aL1130L
aL1107L
aL1134L
aL1118L
aL1110L
aL1093L
aL1079L
aL1100L
aL1099L
aL1116L
aL1124L
aL1082L
aL1089L
aL1128L
aL1115L
aL1097L
aL1094L
aL1071L
aL1109L
aL1138L
aL1080L
aL1105L
aL1083L
aL1072L
aL1096L
aL1092L
aL1085L
aL1104L
aL1127L
aL1125L
aL1084L
aL1088L
aL1074L
aL1108L
aL1121L
aL1102L
aL1106L
aL1090L
aL1098L
aL1137L
aL1095L
aL1111L
aL1078L
aL0L
aL72L
aL32L
aL109L
aL115L
aL115L
aL116L
aL116L
aL104L
aL110L
aL116L
aL115L
aL116L
aL111L
aL111L
aL109L
aL32L
aL102L
aL32L
aL97L
aL111L
aL102L
aL101L
aL45L
aL32L
aL102L
aL115L
aL32L
aL111L
aL101L
aL101L
aL104L
aL104L
aL101L
aL115L
aL84L
aL100L
aL102L
aL114L
aL32L
aL119L
aL110L
aL111L
aL116L
aL105L
aL32L
aL32L
aL32L
aL110L
aL105L
aL101L
aL114L
aL74L
aL97L
aL111L
aL98L
aL111L
aL99L
aL104L
aL107L
aL32L
aL101L
aL121L
aL115L
aL105L
aL32L
aL32L
aL112L
aL114L
aL105L
a.L1000L
.