(lp0
L81L
aL104L
aL98L
aL128L
aL133L
aL96L
aL138L
aL132L
aL80L
aL110L
aL74L
aL90L
aL105L
aL143L
aL140L
aL95L
aL119L
aL93L
aL114L
aL131L
aL126L
aL142L
aL117L
aL89L
aL91L
aL100L
aL115L
aL121L
aL106L
aL76L
aL82L
aL85L
aL141L
aL102L
aL108L
aL130L
aL84L
aL112L
aL124L
aL144L
aL127L
aL123L
aL75L
aL73L
aL139L
aL94L
aL137L
aL122L
aL134L
aL113L
aL120L
aL129L
aL125L
aL111L
aL136L
aL109L
aL79L
aL99L
aL77L
aL97L
aL87L
aL135L
aL86L
aL101L
aL83L
aL78L
aL116L
aL118L
aL103L
aL92L
aL88L
aL107L
aL0L
aL32L
aL97L
aL101L
aL111L
aL97L
aL101L
aL108L
aL119L
aL87L
aL119L
aL107L
aL119L
aL32L
aL104L
aL32L
aL114L
aL32L
aL116L
aL119L
aL97L
aL114L
aL97L
aL32L
aL111L
aL109L
aL32L
aL105L
aL101L
aL97L
aL111L
aL101L
aL101L
aL32L
aL110L
aL101L
aL116L
aL108L
aL104L
aL87L
aL104L
aL101L
aL101L
aL32L
aL115L
aL116L
aL112L
aL97L
aL32L
aL107L
aL32L
aL119L
aL97L
aL32L
aL98L
aL32L
aL107L
aL45L
aL32L
aL32L
aL32L
aL110L
aL98L
aL83L
aL105L
aL121L
aL119L
aL109L
aL101L
aL110L
aL117L
aL119L
aL116L
a.