(lp0
L117L
aL152L
aL148L
aL78L
aL121L
aL125L
aL143L
aL138L
aL108L
aL89L
aL133L
aL139L
aL130L
aL88L
aL99L
aL79L
aL82L
aL122L
aL124L
aL104L
aL90L
aL101L
aL85L
aL81L
aL153L
aL110L
aL137L
aL129L
aL120L
aL100L
aL142L
aL84L
aL97L
aL127L
aL93L
aL145L
aL96L
aL87L
aL86L
aL91L
aL144L
aL146L
aL126L
aL109L
aL151L
aL123L
aL128L
aL111L
aL136L
aL80L
aL141L
aL118L
aL154L
aL131L
aL114L
aL147L
aL92L
aL98L
aL106L
aL149L
aL115L
aL119L
aL107L
aL105L
aL140L
aL134L
aL116L
aL132L
aL102L
aL94L
aL83L
aL103L
aL113L
aL112L
aL150L
aL135L
aL95L
aL0L
aL121L
aL111L
aL32L
aL116L
aL32L
aL111L
aL100L
aL32L
aL108L
aL108L
aL32L
aL110L
aL97L
aL32L
aL116L
aL115L
aL101L
aL108L
aL97L
aL111L
aL32L
aL100L
aL44L
aL116L
aL108L
aL110L
aL101L
aL32L
aL119L
aL45L
aL97L
aL110L
aL105L
aL105L
aL72L
aL32L
aL101L
aL121L
aL112L
aL73L
aL32L
aL32L
aL115L
aL111L
aL103L
aL115L
aL114L
aL117L
aL105L
aL32L
aL32L
aL103L
aL116L
aL114L
aL111L
aL110L
aL97L
aL108L
aL110L
aL110L
aL99L
aL111L
aL78L
aL97L
aL32L
aL32L
aL116L
aL109L
aL104L
aL97L
aL32L
aL97L
aL105L
aL103L
aL102L
aL104L
aL103L
a.c__builtin__
xrange
p0
(L0L
L77L
L1L
tp1
Rp2
.